target datalayout = "e-m:e-p270:32:32-p271:32:32-p272:64:64-i64:64-i128:128-f80:128-n8:16:32:64-S128"
target triple = "x86_64-pc-linux-gnu"

%struct.pcre2_memctl = type { ptr, ptr, ptr }
%struct.pcre2_real_convert_context_8 = type { %struct.pcre2_memctl, i32, i32 }

; Function Attrs: nounwind uwtable
define dso_local ptr @php_pcre2_convert_context_copy(ptr noundef %0) #0 {
  %2 = alloca ptr, align 8
  %3 = alloca ptr, align 8
  %4 = alloca ptr, align 8
  %5 = alloca i32, align 4
  store ptr %0, ptr %3, align 8, !tbaa !35
  call void @llvm.lifetime.start.p0(i64 8, ptr %4) #6
  %6 = load ptr, ptr %3, align 8, !tbaa !35
  %7 = getelementptr inbounds nuw %struct.pcre2_real_convert_context_8, ptr %6, i32 0, i32 0
  %8 = getelementptr inbounds nuw %struct.pcre2_memctl, ptr %7, i32 0, i32 0
  %9 = load ptr, ptr %8, align 8, !tbaa !44
  %10 = load ptr, ptr %3, align 8, !tbaa !35
  %11 = getelementptr inbounds nuw %struct.pcre2_real_convert_context_8, ptr %10, i32 0, i32 0
  %12 = getelementptr inbounds nuw %struct.pcre2_memctl, ptr %11, i32 0, i32 2
  %13 = load ptr, ptr %12, align 8, !tbaa !46
  %14 = call ptr %9(i64 noundef 32, ptr noundef %13)
  store ptr %14, ptr %4, align 8, !tbaa !35
  %15 = load ptr, ptr %4, align 8, !tbaa !35
  %16 = icmp eq ptr %15, null
  br i1 %16, label %17, label %18

17:                                               ; preds = %1
  store ptr null, ptr %2, align 8
  store i32 1, ptr %5, align 4
  br label %22

18:                                               ; preds = %1
  %19 = load ptr, ptr %4, align 8, !tbaa !35
  %20 = load ptr, ptr %3, align 8, !tbaa !35
  call void @llvm.memcpy.p0.p0.i64(ptr align 8 %19, ptr align 8 %20, i64 32, i1 false)
  %21 = load ptr, ptr %4, align 8, !tbaa !35
  store ptr %21, ptr %2, align 8
  store i32 1, ptr %5, align 4
  br label %22

22:                                               ; preds = %18, %17
  call void @llvm.lifetime.end.p0(i64 8, ptr %4) #6
  %23 = load ptr, ptr %2, align 8
  ret ptr %23
}