; Function Attrs: nounwind uwtable
define dso_local ptr @php_pcre2_convert_context_copy(ptr noundef readonly captures(none) %0) local_unnamed_addr #0 {
  %2 = load ptr, ptr %0, align 8, !tbaa !34
  %3 = getelementptr inbounds nuw i8, ptr %0, i64 16
  %4 = load ptr, ptr %3, align 8, !tbaa !36
  %5 = tail call ptr %2(i64 noundef 32, ptr noundef %4) #12
  %6 = icmp eq ptr %5, null
  br i1 %6, label %8, label %7

7:                                                ; preds = %1
  tail call void @llvm.memcpy.p0.p0.i64(ptr noundef nonnull align 8 dereferenceable(32) %5, ptr noundef nonnull align 8 dereferenceable(32) %0, i64 32, i1 false)
  br label %8

8:                                                ; preds = %1, %7
  ret ptr %5
}